; Function Attrs: nounwind uwtable
define internal void @_tab_switch_callback(ptr readnone captures(none) %0, ptr readnone captures(none) %1, i32 noundef %2, ptr noundef readonly captures(none) %3) #1 {
  %5 = load ptr, ptr getelementptr inbounds nuw (i8, ptr @darktable, i64 104), align 8, !tbaa !155
  %6 = getelementptr inbounds nuw i8, ptr %5, i64 96
  %7 = load i32, ptr %6, align 8, !tbaa !156
  %.not = icmp eq i32 %7, 0
  br i1 %.not, label %8, label %16

8:                                                ; preds = %4
  %9 = getelementptr inbounds nuw i8, ptr %3, i64 704
  %10 = load ptr, ptr %9, align 16, !tbaa !6
  %11 = getelementptr inbounds nuw i8, ptr %10, i64 172
  store i32 %2, ptr %11, align 4, !tbaa !116
  %12 = getelementptr inbounds nuw i8, ptr %10, i64 56
  %13 = load ptr, ptr %12, align 8, !tbaa !133
  %14 = tail call i64 @gtk_widget_get_type() #23
  %15 = tail call ptr @g_type_check_instance_cast(ptr noundef %13, i64 noundef %14) #21
  tail call void @gtk_widget_queue_draw(ptr noundef %15) #21
  br label %16

16:                                               ; preds = %4, %8
  ret void
}